target datalayout = "e-m:e-p270:32:32-p271:32:32-p272:64:64-i64:64-i128:128-f80:128-n8:16:32:64-S128"
target triple = "x86_64-pc-linux-gnu"

@.str = private unnamed_addr constant [2 x i8] c"/\00", align 1
@tzdirpath = internal global [1024 x i8] zeroinitializer, align 16

; Function Attrs: nounwind uwtable
define internal ptr @pg_TZDIR() #0 {
  ret ptr @tzdirpath
}

; Function Attrs: nounwind uwtable
define dso_local i32 @pg_open_tzfile(ptr noundef %0, ptr noundef %1) #0 {
  %3 = alloca i32, align 4
  %4 = alloca ptr, align 8
  %5 = alloca ptr, align 8
  %6 = alloca [1024 x i8], align 16
  %7 = alloca i32, align 4
  store ptr %0, ptr %4, align 8
  store ptr %1, ptr %5, align 8
  call void @llvm.lifetime.start.p0(i64 1024, ptr %6) #6
  %8 = load ptr, ptr %5, align 8
  %9 = icmp ne ptr %8, null
  br i1 %9, label %10, label %14

10:                                               ; preds = %2
  %11 = load ptr, ptr %5, align 8
  %12 = load ptr, ptr %4, align 8
  %13 = call i64 @strlcpy(ptr noundef %11, ptr noundef %12, i64 noundef 256)
  br label %14

14:                                               ; preds = %10, %2
  %15 = getelementptr inbounds [1024 x i8], ptr %6, i64 0, i64 0
  %16 = call ptr @pg_TZDIR()
  %17 = call i64 @strlcpy(ptr noundef %15, ptr noundef %16, i64 noundef 1024)
  %18 = getelementptr inbounds [1024 x i8], ptr %6, i64 0, i64 0
  %19 = call i64 @strlen(ptr noundef %18) #7
  %20 = add i64 %19, 1
  %21 = load ptr, ptr %4, align 8
  %22 = call i64 @strlen(ptr noundef %21) #7
  %23 = add i64 %20, %22
  %24 = icmp uge i64 %23, 1024
  br i1 %24, label %25, label %26

25:                                               ; preds = %14
  store i32 -1, ptr %3, align 4
  store i32 1, ptr %7, align 4
  br label %34

26:                                               ; preds = %14
  %27 = getelementptr inbounds [1024 x i8], ptr %6, i64 0, i64 0
  %28 = call ptr @strcat(ptr noundef %27, ptr noundef @.str) #6
  %29 = getelementptr inbounds [1024 x i8], ptr %6, i64 0, i64 0
  %30 = load ptr, ptr %4, align 8
  %31 = call ptr @strcat(ptr noundef %29, ptr noundef %30) #6
  %32 = getelementptr inbounds [1024 x i8], ptr %6, i64 0, i64 0
  %33 = call i32 (ptr, i32, ...) @open(ptr noundef %32, i32 noundef 0, i32 noundef 0)
  store i32 %33, ptr %3, align 4
  store i32 1, ptr %7, align 4
  br label %34

34:                                               ; preds = %26, %25
  call void @llvm.lifetime.end.p0(i64 1024, ptr %6) #6
  %35 = load i32, ptr %3, align 4
  ret i32 %35
}