; Function Attrs: nofree nounwind uwtable
define dso_local noundef i32 @pg_open_tzfile(ptr noundef %0, ptr noundef %1) local_unnamed_addr #0 {
  %3 = alloca [1024 x i8], align 16
  call void @llvm.lifetime.start.p0(i64 1024, ptr nonnull %3) #13
  %.not = icmp eq ptr %1, null
  br i1 %.not, label %6, label %4

4:                                                ; preds = %2
  %5 = tail call i64 @strlcpy(ptr noundef nonnull dereferenceable(1) %1, ptr noundef nonnull dereferenceable(1) %0, i64 noundef 256) #13
  br label %6

6:                                                ; preds = %4, %2
  %7 = call i64 @strlcpy(ptr noundef nonnull dereferenceable(1) %3, ptr noundef nonnull dereferenceable(1) @tzdirpath, i64 noundef 1024) #13
  %8 = call i64 @strlen(ptr nonnull dereferenceable(1) %3)
  %9 = add i64 %8, 1
  %10 = call i64 @strlen(ptr noundef nonnull dereferenceable(1) %0) #14
  %11 = add i64 %9, %10
  %12 = icmp ugt i64 %11, 1023
  br i1 %12, label %16, label %13

13:                                               ; preds = %6
  %endptr = getelementptr inbounds i8, ptr %3, i64 %8
  store i16 47, ptr %endptr, align 1
  %14 = call ptr @strcat(ptr noundef nonnull dereferenceable(1) %3, ptr noundef nonnull dereferenceable(1) %0) #13
  %15 = call i32 (ptr, i32, ...) @open(ptr noundef nonnull %3, i32 noundef 0, i32 noundef 0) #13
  br label %16

16:                                               ; preds = %6, %13
  %.0 = phi i32 [ %15, %13 ], [ -1, %6 ]
  call void @llvm.lifetime.end.p0(i64 1024, ptr nonnull %3) #13
  ret i32 %.0
}